; Function Attrs: mustprogress uwtable
define hidden noundef ptr @_ZN11ast_manager10mk_rewriteEP4exprS1_(ptr noundef nonnull align 8 dereferenceable(976) %0, ptr noundef %1, ptr noundef %2) local_unnamed_addr #7 align 2 {
  %4 = alloca ptr, align 8
  %5 = alloca [2 x ptr], align 16
  %6 = getelementptr inbounds nuw i8, ptr %0, i64 712
  %7 = load i32, ptr %6, align 8, !tbaa !324
  %8 = icmp eq i32 %7, 0
  br i1 %8, label %31, label %9

9:                                                ; preds = %3
  call void @llvm.lifetime.start.p0(i64 16, ptr nonnull %5) #38
  store ptr %1, ptr %5, align 16, !tbaa !124
  %10 = getelementptr inbounds nuw i8, ptr %5, i64 8
  store ptr %2, ptr %10, align 8, !tbaa !124
  %11 = getelementptr inbounds nuw i8, ptr %0, i64 704
  %12 = load ptr, ptr %11, align 8, !tbaa !33
  %13 = icmp eq ptr %12, null
  br i1 %13, label %_ZN11ast_manager5mk_eqEP4exprS1_.exit.thread, label %_ZNK6vectorIP11decl_pluginLb0EjE3getEjRKS1_.exit.i.i.i.i.i

_ZN11ast_manager5mk_eqEP4exprS1_.exit.thread:     ; preds = %9
  call void @llvm.lifetime.end.p0(i64 16, ptr nonnull %5) #38
  call void @llvm.lifetime.start.p0(i64 8, ptr nonnull %4)
  br label %_ZN11ast_manager6mk_appEiiP4expr.exit

_ZNK6vectorIP11decl_pluginLb0EjE3getEjRKS1_.exit.i.i.i.i.i: ; preds = %9
  %14 = getelementptr inbounds i8, ptr %12, i64 -4
  %15 = load i32, ptr %14, align 4, !tbaa !24
  %.not.i.i.i.i.i.not.i = icmp eq i32 %15, 0
  br i1 %.not.i.i.i.i.i.not.i, label %_ZN11ast_manager5mk_eqEP4exprS1_.exit, label %_ZNK11ast_manager10get_pluginEi.exit.i.i.i.i

_ZNK11ast_manager10get_pluginEi.exit.i.i.i.i:     ; preds = %_ZNK6vectorIP11decl_pluginLb0EjE3getEjRKS1_.exit.i.i.i.i.i
  %.then.val.i.i.i.i.i = load ptr, ptr %12, align 8, !tbaa !37
  %.not.i.i.i.i = icmp eq ptr %.then.val.i.i.i.i.i, null
  br i1 %.not.i.i.i.i, label %_ZN11ast_manager5mk_eqEP4exprS1_.exit, label %_ZN11ast_manager12mk_func_declEiijPK9parameterjPKP4exprP4sort.exit.i.i.i

_ZN11ast_manager12mk_func_declEiijPK9parameterjPKP4exprP4sort.exit.i.i.i: ; preds = %_ZNK11ast_manager10get_pluginEi.exit.i.i.i.i
  %16 = load ptr, ptr %.then.val.i.i.i.i.i, align 8, !tbaa !39
  %17 = getelementptr inbounds nuw i8, ptr %16, i64 64
  %18 = load ptr, ptr %17, align 8
  %19 = call noundef ptr %18(ptr noundef nonnull align 8 dereferenceable(20) %.then.val.i.i.i.i.i, i32 noundef 2, i32 noundef 0, ptr noundef null, i32 noundef 2, ptr noundef nonnull %5, ptr noundef null)
  %.not.i.i.i = icmp eq ptr %19, null
  br i1 %.not.i.i.i, label %_ZN11ast_manager5mk_eqEP4exprS1_.exit, label %20

20:                                               ; preds = %_ZN11ast_manager12mk_func_declEiijPK9parameterjPKP4exprP4sort.exit.i.i.i
  %21 = call noundef ptr @_ZN11ast_manager6mk_appEP9func_decljPKP4expr(ptr noundef nonnull align 8 dereferenceable(976) %0, ptr noundef nonnull %19, i32 noundef 2, ptr noundef nonnull %5)
  br label %_ZN11ast_manager5mk_eqEP4exprS1_.exit

_ZN11ast_manager5mk_eqEP4exprS1_.exit:            ; preds = %_ZNK6vectorIP11decl_pluginLb0EjE3getEjRKS1_.exit.i.i.i.i.i, %_ZNK11ast_manager10get_pluginEi.exit.i.i.i.i, %_ZN11ast_manager12mk_func_declEiijPK9parameterjPKP4exprP4sort.exit.i.i.i, %20
  %.0.i.i.i.ph = phi ptr [ null, %_ZNK6vectorIP11decl_pluginLb0EjE3getEjRKS1_.exit.i.i.i.i.i ], [ null, %_ZNK11ast_manager10get_pluginEi.exit.i.i.i.i ], [ null, %_ZN11ast_manager12mk_func_declEiijPK9parameterjPKP4exprP4sort.exit.i.i.i ], [ %21, %20 ]
  %.pr = load ptr, ptr %11, align 8, !tbaa !33
  call void @llvm.lifetime.end.p0(i64 16, ptr nonnull %5) #38
  call void @llvm.lifetime.start.p0(i64 8, ptr nonnull %4)
  store ptr %.0.i.i.i.ph, ptr %4, align 8, !tbaa !124
  %22 = icmp eq ptr %.pr, null
  br i1 %22, label %_ZN11ast_manager6mk_appEiiP4expr.exit, label %_ZNK6vectorIP11decl_pluginLb0EjE3getEjRKS1_.exit.i.i.i.i

_ZNK6vectorIP11decl_pluginLb0EjE3getEjRKS1_.exit.i.i.i.i: ; preds = %_ZN11ast_manager5mk_eqEP4exprS1_.exit
  %23 = getelementptr inbounds i8, ptr %.pr, i64 -4
  %24 = load i32, ptr %23, align 4, !tbaa !24
  %.not.i.i.i.i.i.not = icmp eq i32 %24, 0
  br i1 %.not.i.i.i.i.i.not, label %_ZN11ast_manager6mk_appEiiP4expr.exit, label %_ZNK11ast_manager10get_pluginEi.exit.i.i.i

_ZNK11ast_manager10get_pluginEi.exit.i.i.i:       ; preds = %_ZNK6vectorIP11decl_pluginLb0EjE3getEjRKS1_.exit.i.i.i.i
  %.then.val.i.i.i.i = load ptr, ptr %.pr, align 8, !tbaa !37
  %.not.i.i.i4 = icmp eq ptr %.then.val.i.i.i.i, null
  br i1 %.not.i.i.i4, label %_ZN11ast_manager6mk_appEiiP4expr.exit, label %_ZN11ast_manager12mk_func_declEiijPK9parameterjPKP4exprP4sort.exit.i.i

_ZN11ast_manager12mk_func_declEiijPK9parameterjPKP4exprP4sort.exit.i.i: ; preds = %_ZNK11ast_manager10get_pluginEi.exit.i.i.i
  %25 = load ptr, ptr %.then.val.i.i.i.i, align 8, !tbaa !39
  %26 = getelementptr inbounds nuw i8, ptr %25, i64 64
  %27 = load ptr, ptr %26, align 8
  %28 = call noundef ptr %27(ptr noundef nonnull align 8 dereferenceable(20) %.then.val.i.i.i.i, i32 noundef 27, i32 noundef 0, ptr noundef null, i32 noundef 1, ptr noundef nonnull %4, ptr noundef null)
  %.not.i.i = icmp eq ptr %28, null
  br i1 %.not.i.i, label %_ZN11ast_manager6mk_appEiiP4expr.exit, label %29

29:                                               ; preds = %_ZN11ast_manager12mk_func_declEiijPK9parameterjPKP4exprP4sort.exit.i.i
  %30 = call noundef ptr @_ZN11ast_manager6mk_appEP9func_decljPKP4expr(ptr noundef nonnull align 8 dereferenceable(976) %0, ptr noundef nonnull %28, i32 noundef 1, ptr noundef nonnull %4)
  br label %_ZN11ast_manager6mk_appEiiP4expr.exit

_ZN11ast_manager6mk_appEiiP4expr.exit:            ; preds = %_ZN11ast_manager5mk_eqEP4exprS1_.exit.thread, %_ZN11ast_manager5mk_eqEP4exprS1_.exit, %_ZNK6vectorIP11decl_pluginLb0EjE3getEjRKS1_.exit.i.i.i.i, %_ZNK11ast_manager10get_pluginEi.exit.i.i.i, %_ZN11ast_manager12mk_func_declEiijPK9parameterjPKP4exprP4sort.exit.i.i, %29
  %.0.i.i = phi ptr [ %30, %29 ], [ null, %_ZN11ast_manager12mk_func_declEiijPK9parameterjPKP4exprP4sort.exit.i.i ], [ null, %_ZNK11ast_manager10get_pluginEi.exit.i.i.i ], [ null, %_ZNK6vectorIP11decl_pluginLb0EjE3getEjRKS1_.exit.i.i.i.i ], [ null, %_ZN11ast_manager5mk_eqEP4exprS1_.exit ], [ null, %_ZN11ast_manager5mk_eqEP4exprS1_.exit.thread ]
  call void @llvm.lifetime.end.p0(i64 8, ptr nonnull %4)
  br label %31

31:                                               ; preds = %3, %_ZN11ast_manager6mk_appEiiP4expr.exit
  %.0 = phi ptr [ %.0.i.i, %_ZN11ast_manager6mk_appEiiP4expr.exit ], [ null, %3 ]
  ret ptr %.0
}